; Function Attrs: nounwind uwtable
define internal fastcc ptr @_init_l_Lean_Elab_Term_Quotation_precheckUnop___regBuiltin_Lean_Elab_Term_Quotation_precheckUnop__1___closed__2() unnamed_addr #0 {
  %1 = load ptr, ptr @l_Lean_Elab_Term_Quotation_initFn____x40_Lean_Elab_Quotation_Precheck___hyg_90____closed__6, align 8, !tbaa !9
  %2 = load ptr, ptr @l_Lean_Elab_Term_Quotation_initFn____x40_Lean_Elab_Quotation_Precheck___hyg_90____closed__7, align 8, !tbaa !9
  %3 = load ptr, ptr @l_Lean_Elab_Term_Quotation_initFn____x40_Lean_Elab_Quotation_Precheck___hyg_90____closed__8, align 8, !tbaa !9
  %4 = load ptr, ptr @l_Lean_Elab_Term_Quotation_initFn____x40_Lean_Elab_Quotation_Precheck___hyg_90____closed__9, align 8, !tbaa !9
  %5 = load ptr, ptr @l_Lean_Elab_Term_Quotation_precheckUnop___regBuiltin_Lean_Elab_Term_Quotation_precheckUnop__1___closed__1, align 8, !tbaa !9
  %6 = tail call ptr @l_Lean_Name_mkStr5(ptr noundef %1, ptr noundef %2, ptr noundef %3, ptr noundef %4, ptr noundef %5) #4
  ret ptr %6
}